target datalayout = "e-m:e-p270:32:32-p271:32:32-p272:64:64-i64:64-i128:128-f80:128-n8:16:32:64-S128"
target triple = "x86_64-pc-linux-gnu"

%struct.lex_context = type { i16, [2 x i8] }
%struct.parser_params = type { ptr, ptr, %struct.anon.12, i64, i64, i32, i32, i32, i32, i32, ptr, ptr, ptr, ptr, i32, i32, ptr, i64, ptr, ptr, ptr, ptr, i64, i64, %struct.anon.13, ptr, i32, ptr, i32, i64, %struct.lex_context, ptr, ptr, ptr, i16, i64, i64, i64, i64, i64, i64 }
%struct.anon.12 = type { ptr, ptr, ptr, %struct.parser_string_buffer, ptr, ptr, ptr, ptr, ptr, ptr, i32, i32, i32, i32 }
%struct.parser_string_buffer = type { ptr, ptr }
%struct.anon.13 = type { ptr, i32, i32, i32, i32 }

; Function Attrs: nounwind sspstrong uwtable
define void @ripper_parser_mark(ptr noundef %0) #0 {
  %2 = alloca ptr, align 8
  %3 = alloca ptr, align 8
  store ptr %0, ptr %2, align 8, !tbaa !609
  call void @llvm.lifetime.start.p0(i64 8, ptr %3) #25
  %4 = load ptr, ptr %2, align 8, !tbaa !609
  store ptr %4, ptr %3, align 8, !tbaa !6
  %5 = load ptr, ptr %3, align 8, !tbaa !6
  %6 = getelementptr inbounds nuw %struct.parser_params, ptr %5, i32 0, i32 17
  %7 = load i64, ptr %6, align 8, !tbaa !611
  call void @rb_gc_mark(i64 noundef %7)
  %8 = load ptr, ptr %3, align 8, !tbaa !6
  %9 = getelementptr inbounds nuw %struct.parser_params, ptr %8, i32 0, i32 35
  %10 = load i64, ptr %9, align 8, !tbaa !85
  call void @rb_gc_mark(i64 noundef %10)
  %11 = load ptr, ptr %3, align 8, !tbaa !6
  %12 = getelementptr inbounds nuw %struct.parser_params, ptr %11, i32 0, i32 36
  %13 = load i64, ptr %12, align 8, !tbaa !62
  call void @rb_gc_mark(i64 noundef %13)
  %14 = load ptr, ptr %3, align 8, !tbaa !6
  %15 = getelementptr inbounds nuw %struct.parser_params, ptr %14, i32 0, i32 37
  %16 = load i64, ptr %15, align 8, !tbaa !650
  call void @rb_gc_mark(i64 noundef %16)
  %17 = load ptr, ptr %3, align 8, !tbaa !6
  %18 = getelementptr inbounds nuw %struct.parser_params, ptr %17, i32 0, i32 38
  %19 = load i64, ptr %18, align 8, !tbaa !294
  call void @rb_gc_mark(i64 noundef %19)
  %20 = load ptr, ptr %3, align 8, !tbaa !6
  %21 = getelementptr inbounds nuw %struct.parser_params, ptr %20, i32 0, i32 39
  %22 = load i64, ptr %21, align 8, !tbaa !66
  call void @rb_gc_mark(i64 noundef %22)
  %23 = load ptr, ptr %3, align 8, !tbaa !6
  %24 = getelementptr inbounds nuw %struct.parser_params, ptr %23, i32 0, i32 40
  %25 = load i64, ptr %24, align 8, !tbaa !59
  call void @rb_gc_mark(i64 noundef %25)
  %26 = load ptr, ptr %3, align 8, !tbaa !6
  %27 = getelementptr inbounds nuw %struct.parser_params, ptr %26, i32 0, i32 22
  %28 = load i64, ptr %27, align 8, !tbaa !651
  call void @rb_gc_mark(i64 noundef %28)
  %29 = load ptr, ptr %3, align 8, !tbaa !6
  %30 = getelementptr inbounds nuw %struct.parser_params, ptr %29, i32 0, i32 23
  %31 = load i64, ptr %30, align 8, !tbaa !652
  call void @rb_gc_mark(i64 noundef %31)
  call void @llvm.lifetime.end.p0(i64 8, ptr %3) #25
  ret void
}