; Function Attrs: nounwind sspstrong uwtable
define void @ripper_parser_mark(ptr noundef readonly captures(none) %0) local_unnamed_addr #0 {
  %2 = getelementptr inbounds nuw i8, ptr %0, i64 208
  %3 = load i64, ptr %2, align 8, !tbaa !430
  tail call void @rb_gc_mark(i64 noundef %3) #31
  %4 = getelementptr inbounds nuw i8, ptr %0, i64 368
  %5 = load i64, ptr %4, align 8, !tbaa !46
  tail call void @rb_gc_mark(i64 noundef %5) #31
  %6 = getelementptr inbounds nuw i8, ptr %0, i64 376
  %7 = load i64, ptr %6, align 8, !tbaa !71
  tail call void @rb_gc_mark(i64 noundef %7) #31
  %8 = getelementptr inbounds nuw i8, ptr %0, i64 384
  %9 = load i64, ptr %8, align 8, !tbaa !459
  tail call void @rb_gc_mark(i64 noundef %9) #31
  %10 = getelementptr inbounds nuw i8, ptr %0, i64 392
  %11 = load i64, ptr %10, align 8, !tbaa !47
  tail call void @rb_gc_mark(i64 noundef %11) #31
  %12 = getelementptr inbounds nuw i8, ptr %0, i64 400
  %13 = load i64, ptr %12, align 8, !tbaa !58
  tail call void @rb_gc_mark(i64 noundef %13) #31
  %14 = getelementptr inbounds nuw i8, ptr %0, i64 408
  %15 = load i64, ptr %14, align 8, !tbaa !57
  tail call void @rb_gc_mark(i64 noundef %15) #31
  %16 = getelementptr inbounds nuw i8, ptr %0, i64 248
  %17 = load i64, ptr %16, align 8, !tbaa !460
  tail call void @rb_gc_mark(i64 noundef %17) #31
  %18 = getelementptr inbounds nuw i8, ptr %0, i64 256
  %19 = load i64, ptr %18, align 8, !tbaa !461
  tail call void @rb_gc_mark(i64 noundef %19) #31
  ret void
}